; Function Attrs: mustprogress uwtable
define dso_local void @_ZN4Luau16ConstraintSolver7unblockERKSt6vectorIPKNS_4TypeESaIS4_EENS_8LocationE(ptr noundef nonnull align 8 dereferenceable(1032) %0, ptr noundef nonnull readonly align 8 captures(none) dereferenceable(24) %1, i64 %2, i64 %3) local_unnamed_addr #4 align 2 {
  %5 = load ptr, ptr %1, align 8, !tbaa !39
  %6 = getelementptr inbounds nuw i8, ptr %1, i64 8
  %7 = load ptr, ptr %6, align 8, !tbaa !39
  %.not10 = icmp eq ptr %5, %7
  br i1 %.not10, label %._crit_edge, label %.lr.ph

._crit_edge:                                      ; preds = %.lr.ph, %4
  ret void

.lr.ph:                                           ; preds = %4, %.lr.ph
  %.sroa.07.011 = phi ptr [ %9, %.lr.ph ], [ %5, %4 ]
  %8 = load ptr, ptr %.sroa.07.011, align 8, !tbaa !37
  tail call void @_ZN4Luau16ConstraintSolver7unblockEPKNS_4TypeENS_8LocationE(ptr noundef nonnull align 8 dereferenceable(1032) %0, ptr noundef %8, i64 %2, i64 %3)
  %9 = getelementptr inbounds nuw i8, ptr %.sroa.07.011, i64 8
  %.not = icmp eq ptr %9, %7
  br i1 %.not, label %._crit_edge, label %.lr.ph
}